target datalayout = "e-m:e-p270:32:32-p271:32:32-p272:64:64-i64:64-i128:128-f80:128-n8:16:32:64-S128"
target triple = "x86_64-pc-linux-gnu"

%struct.DdManager = type { %struct.DdNode, ptr, ptr, ptr, ptr, ptr, ptr, ptr, i32, i32, double, double, double, i32, i32, i32, i32, i32, i32, ptr, ptr, %struct.DdSubtable, i32, i32, i32, i32, i32, i32, i32, double, i32, i32, i32, ptr, i64, double, i32, ptr, ptr, ptr, ptr, ptr, ptr, ptr, i32, ptr, ptr, ptr, ptr, ptr, ptr, i32, i32, i32, double, i32, i32, i32, i32, double, double, i32, i32, i32, i32, i32, i32, i32, i32, i32, ptr, ptr, i32, i32, i32, i32, i32, i32, ptr, ptr, ptr, ptr, ptr, ptr, ptr, ptr, i32, i64, i64, i64, i32, i64, i64, double, double, double, double, double, double, i32, ptr, ptr, i64 }
%struct.DdNode = type { i32, i32, ptr, %union.anon, i64 }
%union.anon = type { %struct.DdChildren }
%struct.DdChildren = type { ptr, ptr }
%struct.DdSubtable = type { ptr, i32, i32, i32, i32, i32, i32, i32, i32, i32, i32, i32 }
%struct.Abc_Ntk_t_ = type { i32, i32, ptr, ptr, ptr, ptr, ptr, ptr, ptr, ptr, ptr, ptr, ptr, [11 x i32], i32, i32, i32, i32, ptr, i32, ptr, ptr, i32, i32, i32, double, i32, %struct.Vec_Int_t_, ptr, ptr, ptr, ptr, ptr, float, i32, ptr, ptr, ptr, ptr, ptr, ptr, ptr, ptr, ptr, ptr, ptr, ptr, ptr, ptr, ptr, ptr, ptr, ptr, ptr, ptr, ptr, ptr }
%struct.Vec_Int_t_ = type { i32, i32, ptr }
%struct.Vec_Ptr_t_ = type { i32, i32, ptr }
%struct.Abc_Obj_t_ = type { ptr, ptr, i32, i32, %struct.Vec_Int_t_, %struct.Vec_Int_t_, %union.anon.0, %union.anon.1 }
%union.anon.0 = type { ptr }
%union.anon.1 = type { ptr }

; Function Attrs: inlinehint nounwind uwtable
define internal ptr @Vec_PtrEntry(ptr noundef %0, i32 noundef %1) #4 {
  %3 = alloca ptr, align 8
  %4 = alloca i32, align 4
  store ptr %0, ptr %3, align 8, !tbaa !50
  store i32 %1, ptr %4, align 4, !tbaa !10
  %5 = load ptr, ptr %3, align 8, !tbaa !50
  %6 = getelementptr inbounds nuw %struct.Vec_Ptr_t_, ptr %5, i32 0, i32 2
  %7 = load ptr, ptr %6, align 8, !tbaa !62
  %8 = load i32, ptr %4, align 4, !tbaa !10
  %9 = sext i32 %8 to i64
  %10 = getelementptr inbounds ptr, ptr %7, i64 %9
  %11 = load ptr, ptr %10, align 8, !tbaa !64
  ret ptr %11
}

; Function Attrs: inlinehint nounwind uwtable
define internal i32 @Abc_NtkLatchNum(ptr noundef %0) #4 {
  %2 = alloca ptr, align 8
  store ptr %0, ptr %2, align 8, !tbaa !8
  %3 = load ptr, ptr %2, align 8, !tbaa !8
  %4 = getelementptr inbounds nuw %struct.Abc_Ntk_t_, ptr %3, i32 0, i32 13
  %5 = getelementptr inbounds [11 x i32], ptr %4, i64 0, i64 8
  %6 = load i32, ptr %5, align 8, !tbaa !10
  ret i32 %6
}

; Function Attrs: inlinehint nounwind uwtable
define internal i32 @Abc_LatchIsInit1(ptr noundef %0) #4 {
  %2 = alloca ptr, align 8
  store ptr %0, ptr %2, align 8, !tbaa !45
  %3 = load ptr, ptr %2, align 8, !tbaa !45
  %4 = getelementptr inbounds nuw %struct.Abc_Obj_t_, ptr %3, i32 0, i32 6
  %5 = load ptr, ptr %4, align 8, !tbaa !55
  %6 = icmp eq ptr %5, inttoptr (i64 2 to ptr)
  %7 = zext i1 %6 to i32
  ret i32 %7
}

; Function Attrs: inlinehint nounwind uwtable
define internal i32 @Abc_NtkCiNum(ptr noundef %0) #4 {
  %2 = alloca ptr, align 8
  store ptr %0, ptr %2, align 8, !tbaa !8
  %3 = load ptr, ptr %2, align 8, !tbaa !8
  %4 = getelementptr inbounds nuw %struct.Abc_Ntk_t_, ptr %3, i32 0, i32 8
  %5 = load ptr, ptr %4, align 8, !tbaa !54
  %6 = call i32 @Vec_PtrSize(ptr noundef %5)
  ret i32 %6
}

; Function Attrs: inlinehint nounwind uwtable
define internal i32 @Abc_NtkPiNum(ptr noundef %0) #4 {
  %2 = alloca ptr, align 8
  store ptr %0, ptr %2, align 8, !tbaa !8
  %3 = load ptr, ptr %2, align 8, !tbaa !8
  %4 = getelementptr inbounds nuw %struct.Abc_Ntk_t_, ptr %3, i32 0, i32 6
  %5 = load ptr, ptr %4, align 8, !tbaa !53
  %6 = call i32 @Vec_PtrSize(ptr noundef %5)
  ret i32 %6
}

; Function Attrs: inlinehint nounwind uwtable
define internal i32 @Abc_ObjIsLatch(ptr noundef %0) #4 {
  %2 = alloca ptr, align 8
  store ptr %0, ptr %2, align 8, !tbaa !45
  %3 = load ptr, ptr %2, align 8, !tbaa !45
  %4 = getelementptr inbounds nuw %struct.Abc_Obj_t_, ptr %3, i32 0, i32 3
  %5 = load i32, ptr %4, align 4
  %6 = and i32 %5, 15
  %7 = icmp eq i32 %6, 8
  %8 = zext i1 %7 to i32
  ret i32 %8
}

; Function Attrs: inlinehint nounwind uwtable
define internal ptr @Abc_NtkBox(ptr noundef %0, i32 noundef %1) #4 {
  %3 = alloca ptr, align 8
  %4 = alloca i32, align 4
  store ptr %0, ptr %3, align 8, !tbaa !8
  store i32 %1, ptr %4, align 4, !tbaa !10
  %5 = load ptr, ptr %3, align 8, !tbaa !8
  %6 = getelementptr inbounds nuw %struct.Abc_Ntk_t_, ptr %5, i32 0, i32 11
  %7 = load ptr, ptr %6, align 8, !tbaa !32
  %8 = load i32, ptr %4, align 4, !tbaa !10
  %9 = call ptr @Vec_PtrEntry(ptr noundef %7, i32 noundef %8)
  ret ptr %9
}

; Function Attrs: inlinehint nounwind uwtable
define internal i32 @Vec_PtrSize(ptr noundef %0) #4 {
  %2 = alloca ptr, align 8
  store ptr %0, ptr %2, align 8, !tbaa !50
  %3 = load ptr, ptr %2, align 8, !tbaa !50
  %4 = getelementptr inbounds nuw %struct.Vec_Ptr_t_, ptr %3, i32 0, i32 1
  %5 = load i32, ptr %4, align 4, !tbaa !51
  ret i32 %5
}

; Function Attrs: nounwind uwtable
define ptr @Abc_NtkInitStateVarMap(ptr noundef %0, ptr noundef %1, i32 noundef %2) #0 {
  %4 = alloca ptr, align 8
  %5 = alloca ptr, align 8
  %6 = alloca i32, align 4
  %7 = alloca ptr, align 8
  %8 = alloca ptr, align 8
  %9 = alloca ptr, align 8
  %10 = alloca ptr, align 8
  %11 = alloca ptr, align 8
  %12 = alloca ptr, align 8
  %13 = alloca i32, align 4
  store ptr %0, ptr %4, align 8, !tbaa !3
  store ptr %1, ptr %5, align 8, !tbaa !8
  store i32 %2, ptr %6, align 4, !tbaa !10
  call void @llvm.lifetime.start.p0(i64 8, ptr %7) #10
  call void @llvm.lifetime.start.p0(i64 8, ptr %8) #10
  call void @llvm.lifetime.start.p0(i64 8, ptr %9) #10
  call void @llvm.lifetime.start.p0(i64 8, ptr %10) #10
  call void @llvm.lifetime.start.p0(i64 8, ptr %11) #10
  call void @llvm.lifetime.start.p0(i64 8, ptr %12) #10
  call void @llvm.lifetime.start.p0(i64 4, ptr %13) #10
  %14 = load ptr, ptr %4, align 8, !tbaa !3
  %15 = getelementptr inbounds nuw %struct.DdManager, ptr %14, i32 0, i32 15
  %16 = load i32, ptr %15, align 8, !tbaa !12
  %17 = sext i32 %16 to i64
  %18 = mul i64 8, %17
  %19 = call noalias ptr @malloc(i64 noundef %18) #11
  store ptr %19, ptr %7, align 8, !tbaa !29
  %20 = load ptr, ptr %4, align 8, !tbaa !3
  %21 = getelementptr inbounds nuw %struct.DdManager, ptr %20, i32 0, i32 15
  %22 = load i32, ptr %21, align 8, !tbaa !12
  %23 = sext i32 %22 to i64
  %24 = mul i64 8, %23
  %25 = call noalias ptr @malloc(i64 noundef %24) #11
  store ptr %25, ptr %8, align 8, !tbaa !29
  %26 = load ptr, ptr %4, align 8, !tbaa !3
  %27 = getelementptr inbounds nuw %struct.DdManager, ptr %26, i32 0, i32 1
  %28 = load ptr, ptr %27, align 8, !tbaa !30
  store ptr %28, ptr %10, align 8, !tbaa !31
  %29 = load ptr, ptr %10, align 8, !tbaa !31
  call void @Cudd_Ref(ptr noundef %29)
  store i32 0, ptr %13, align 4, !tbaa !10
  br label %30

30:                                               ; preds = %99, %3
  %31 = load i32, ptr %13, align 4, !tbaa !10
  %32 = load ptr, ptr %5, align 8, !tbaa !8
  %33 = getelementptr inbounds nuw %struct.Abc_Ntk_t_, ptr %32, i32 0, i32 11
  %34 = load ptr, ptr %33, align 8, !tbaa !32
  %35 = call i32 @Vec_PtrSize(ptr noundef %34)
  %36 = icmp slt i32 %31, %35
  br i1 %36, label %37, label %41

37:                                               ; preds = %30
  %38 = load ptr, ptr %5, align 8, !tbaa !8
  %39 = load i32, ptr %13, align 4, !tbaa !10
  %40 = call ptr @Abc_NtkBox(ptr noundef %38, i32 noundef %39)
  store ptr %40, ptr %12, align 8, !tbaa !45
  br label %41

41:                                               ; preds = %37, %30
  %42 = phi i1 [ false, %30 ], [ true, %37 ]
  br i1 %42, label %43, label %102

43:                                               ; preds = %41
  %44 = load ptr, ptr %12, align 8, !tbaa !45
  %45 = call i32 @Abc_ObjIsLatch(ptr noundef %44)
  %46 = icmp ne i32 %45, 0
  br i1 %46, label %48, label %47

47:                                               ; preds = %43
  br label %98

48:                                               ; preds = %43
  %49 = load ptr, ptr %4, align 8, !tbaa !3
  %50 = getelementptr inbounds nuw %struct.DdManager, ptr %49, i32 0, i32 41
  %51 = load ptr, ptr %50, align 8, !tbaa !47
  %52 = load ptr, ptr %5, align 8, !tbaa !8
  %53 = call i32 @Abc_NtkPiNum(ptr noundef %52)
  %54 = load i32, ptr %13, align 4, !tbaa !10
  %55 = add nsw i32 %53, %54
  %56 = sext i32 %55 to i64
  %57 = getelementptr inbounds ptr, ptr %51, i64 %56
  %58 = load ptr, ptr %57, align 8, !tbaa !31
  %59 = load ptr, ptr %7, align 8, !tbaa !29
  %60 = load i32, ptr %13, align 4, !tbaa !10
  %61 = sext i32 %60 to i64
  %62 = getelementptr inbounds ptr, ptr %59, i64 %61
  store ptr %58, ptr %62, align 8, !tbaa !31
  %63 = load ptr, ptr %4, align 8, !tbaa !3
  %64 = getelementptr inbounds nuw %struct.DdManager, ptr %63, i32 0, i32 41
  %65 = load ptr, ptr %64, align 8, !tbaa !47
  %66 = load ptr, ptr %5, align 8, !tbaa !8
  %67 = call i32 @Abc_NtkCiNum(ptr noundef %66)
  %68 = load i32, ptr %13, align 4, !tbaa !10
  %69 = add nsw i32 %67, %68
  %70 = sext i32 %69 to i64
  %71 = getelementptr inbounds ptr, ptr %65, i64 %70
  %72 = load ptr, ptr %71, align 8, !tbaa !31
  %73 = load ptr, ptr %8, align 8, !tbaa !29
  %74 = load i32, ptr %13, align 4, !tbaa !10
  %75 = sext i32 %74 to i64
  %76 = getelementptr inbounds ptr, ptr %73, i64 %75
  store ptr %72, ptr %76, align 8, !tbaa !31
  %77 = load ptr, ptr %7, align 8, !tbaa !29
  %78 = load i32, ptr %13, align 4, !tbaa !10
  %79 = sext i32 %78 to i64
  %80 = getelementptr inbounds ptr, ptr %77, i64 %79
  %81 = load ptr, ptr %80, align 8, !tbaa !31
  %82 = ptrtoint ptr %81 to i64
  %83 = load ptr, ptr %12, align 8, !tbaa !45
  %84 = call i32 @Abc_LatchIsInit1(ptr noundef %83)
  %85 = icmp ne i32 %84, 0
  %86 = xor i1 %85, true
  %87 = zext i1 %86 to i32
  %88 = sext i32 %87 to i64
  %89 = xor i64 %82, %88
  %90 = inttoptr i64 %89 to ptr
  store ptr %90, ptr %11, align 8, !tbaa !31
  %91 = load ptr, ptr %4, align 8, !tbaa !3
  %92 = load ptr, ptr %10, align 8, !tbaa !31
  store ptr %92, ptr %9, align 8, !tbaa !31
  %93 = load ptr, ptr %11, align 8, !tbaa !31
  %94 = call ptr @Cudd_bddAnd(ptr noundef %91, ptr noundef %92, ptr noundef %93)
  store ptr %94, ptr %10, align 8, !tbaa !31
  %95 = load ptr, ptr %10, align 8, !tbaa !31
  call void @Cudd_Ref(ptr noundef %95)
  %96 = load ptr, ptr %4, align 8, !tbaa !3
  %97 = load ptr, ptr %9, align 8, !tbaa !31
  call void @Cudd_RecursiveDeref(ptr noundef %96, ptr noundef %97)
  br label %98

98:                                               ; preds = %48, %47
  br label %99

99:                                               ; preds = %98
  %100 = load i32, ptr %13, align 4, !tbaa !10
  %101 = add nsw i32 %100, 1
  store i32 %101, ptr %13, align 4, !tbaa !10
  br label %30, !llvm.loop !48

102:                                              ; preds = %41
  %103 = load ptr, ptr %4, align 8, !tbaa !3
  %104 = load ptr, ptr %7, align 8, !tbaa !29
  %105 = load ptr, ptr %8, align 8, !tbaa !29
  %106 = load ptr, ptr %5, align 8, !tbaa !8
  %107 = call i32 @Abc_NtkLatchNum(ptr noundef %106)
  %108 = call i32 @Cudd_SetVarMap(ptr noundef %103, ptr noundef %104, ptr noundef %105, i32 noundef %107)
  %109 = load ptr, ptr %7, align 8, !tbaa !29
  %110 = icmp ne ptr %109, null
  br i1 %110, label %111, label %113

111:                                              ; preds = %102
  %112 = load ptr, ptr %7, align 8, !tbaa !29
  call void @free(ptr noundef %112) #10
  store ptr null, ptr %7, align 8, !tbaa !29
  br label %114

113:                                              ; preds = %102
  br label %114

114:                                              ; preds = %113, %111
  %115 = load ptr, ptr %8, align 8, !tbaa !29
  %116 = icmp ne ptr %115, null
  br i1 %116, label %117, label %119

117:                                              ; preds = %114
  %118 = load ptr, ptr %8, align 8, !tbaa !29
  call void @free(ptr noundef %118) #10
  store ptr null, ptr %8, align 8, !tbaa !29
  br label %120

119:                                              ; preds = %114
  br label %120

120:                                              ; preds = %119, %117
  %121 = load ptr, ptr %10, align 8, !tbaa !31
  call void @Cudd_Deref(ptr noundef %121)
  %122 = load ptr, ptr %10, align 8, !tbaa !31
  call void @llvm.lifetime.end.p0(i64 4, ptr %13) #10
  call void @llvm.lifetime.end.p0(i64 8, ptr %12) #10
  call void @llvm.lifetime.end.p0(i64 8, ptr %11) #10
  call void @llvm.lifetime.end.p0(i64 8, ptr %10) #10
  call void @llvm.lifetime.end.p0(i64 8, ptr %9) #10
  call void @llvm.lifetime.end.p0(i64 8, ptr %8) #10
  call void @llvm.lifetime.end.p0(i64 8, ptr %7) #10
  ret ptr %122
}