; Function Attrs: nounwind uwtable
define ptr @Abc_NtkInitStateVarMap(ptr noundef %0, ptr noundef readonly captures(none) %1, i32 %2) local_unnamed_addr #0 {
  %4 = getelementptr inbounds nuw i8, ptr %0, i64 136
  %5 = load i32, ptr %4, align 8, !tbaa !3
  %6 = sext i32 %5 to i64
  %7 = shl nsw i64 %6, 3
  %8 = tail call noalias ptr @malloc(i64 noundef %7) #14
  %9 = tail call noalias ptr @malloc(i64 noundef %7) #14
  %10 = getelementptr inbounds nuw i8, ptr %0, i64 40
  %11 = load ptr, ptr %10, align 8, !tbaa !24
  tail call void @Cudd_Ref(ptr noundef %11) #15
  %12 = getelementptr inbounds nuw i8, ptr %1, i64 80
  %13 = load ptr, ptr %12, align 8, !tbaa !25
  %14 = getelementptr i8, ptr %13, i64 4
  %.val51 = load i32, ptr %14, align 4, !tbaa !39
  %15 = icmp sgt i32 %.val51, 0
  br i1 %15, label %.lr.ph, label %.critedge

.lr.ph:                                           ; preds = %3
  %16 = getelementptr inbounds nuw i8, ptr %0, i64 344
  %17 = getelementptr i8, ptr %1, i64 40
  %18 = getelementptr i8, ptr %1, i64 56
  br label %19

19:                                               ; preds = %.lr.ph, %48
  %20 = phi ptr [ %13, %.lr.ph ], [ %49, %48 ]
  %indvars.iv = phi i64 [ 0, %.lr.ph ], [ %indvars.iv.next, %48 ]
  %.03852 = phi ptr [ %11, %.lr.ph ], [ %.1, %48 ]
  %21 = getelementptr i8, ptr %20, i64 8
  %.val44.val = load ptr, ptr %21, align 8, !tbaa !41
  %22 = getelementptr inbounds nuw ptr, ptr %.val44.val, i64 %indvars.iv
  %23 = load ptr, ptr %22, align 8, !tbaa !42
  %24 = getelementptr i8, ptr %23, i64 20
  %.val45 = load i32, ptr %24, align 4
  %25 = and i32 %.val45, 15
  %.not50 = icmp eq i32 %25, 8
  br i1 %.not50, label %26, label %48

26:                                               ; preds = %19
  %27 = load ptr, ptr %16, align 8, !tbaa !43
  %.val46 = load ptr, ptr %17, align 8, !tbaa !44
  %28 = getelementptr i8, ptr %.val46, i64 4
  %.val46.val = load i32, ptr %28, align 4, !tbaa !39
  %29 = trunc nuw nsw i64 %indvars.iv to i32
  %30 = add nsw i32 %.val46.val, %29
  %31 = sext i32 %30 to i64
  %32 = getelementptr inbounds ptr, ptr %27, i64 %31
  %33 = load ptr, ptr %32, align 8, !tbaa !45
  %34 = getelementptr inbounds nuw ptr, ptr %8, i64 %indvars.iv
  store ptr %33, ptr %34, align 8, !tbaa !45
  %.val47 = load ptr, ptr %18, align 8, !tbaa !46
  %35 = getelementptr i8, ptr %.val47, i64 4
  %.val47.val = load i32, ptr %35, align 4, !tbaa !39
  %36 = add nsw i32 %.val47.val, %29
  %37 = sext i32 %36 to i64
  %38 = getelementptr inbounds ptr, ptr %27, i64 %37
  %39 = load ptr, ptr %38, align 8, !tbaa !45
  %40 = getelementptr inbounds nuw ptr, ptr %9, i64 %indvars.iv
  store ptr %39, ptr %40, align 8, !tbaa !45
  %41 = ptrtoint ptr %33 to i64
  %42 = getelementptr i8, ptr %23, i64 56
  %.val48 = load ptr, ptr %42, align 8, !tbaa !47
  %43 = icmp ne ptr %.val48, inttoptr (i64 2 to ptr)
  %44 = zext i1 %43 to i64
  %45 = xor i64 %44, %41
  %46 = inttoptr i64 %45 to ptr
  %47 = tail call ptr @Cudd_bddAnd(ptr noundef %0, ptr noundef %.03852, ptr noundef %46) #15
  tail call void @Cudd_Ref(ptr noundef %47) #15
  tail call void @Cudd_RecursiveDeref(ptr noundef %0, ptr noundef %.03852) #15
  %.pre = load ptr, ptr %12, align 8, !tbaa !25
  br label %48

48:                                               ; preds = %26, %19
  %49 = phi ptr [ %.pre, %26 ], [ %20, %19 ]
  %.1 = phi ptr [ %47, %26 ], [ %.03852, %19 ]
  %indvars.iv.next = add nuw nsw i64 %indvars.iv, 1
  %50 = getelementptr i8, ptr %49, i64 4
  %.val = load i32, ptr %50, align 4, !tbaa !39
  %51 = sext i32 %.val to i64
  %52 = icmp slt i64 %indvars.iv.next, %51
  br i1 %52, label %19, label %.critedge, !llvm.loop !48

.critedge:                                        ; preds = %48, %3
  %.038.lcssa = phi ptr [ %11, %3 ], [ %.1, %48 ]
  %53 = getelementptr i8, ptr %1, i64 128
  %.val49 = load i32, ptr %53, align 8, !tbaa !50
  %54 = tail call i32 @Cudd_SetVarMap(ptr noundef %0, ptr noundef %8, ptr noundef %9, i32 noundef %.val49) #15
  %.not = icmp eq ptr %8, null
  br i1 %.not, label %56, label %55

55:                                               ; preds = %.critedge
  tail call void @free(ptr noundef nonnull %8) #15
  br label %56

56:                                               ; preds = %.critedge, %55
  %.not41 = icmp eq ptr %9, null
  br i1 %.not41, label %58, label %57

57:                                               ; preds = %56
  tail call void @free(ptr noundef nonnull %9) #15
  br label %58

58:                                               ; preds = %56, %57
  tail call void @Cudd_Deref(ptr noundef %.038.lcssa) #15
  ret ptr %.038.lcssa
}